target datalayout = "e-m:e-p270:32:32-p271:32:32-p272:64:64-i64:64-i128:128-f80:128-n8:16:32:64-S128"
target triple = "x86_64-pc-linux-gnu"

%"class.llvm::SmallVectorBase" = type { ptr, i32, i32 }
%"struct.llvm::AnalysisKey" = type { [8 x i8] }
%class.anon.275 = type { ptr }
%"struct.llvm::detail::AnalysisResultConcept.443" = type { ptr }
%"struct.llvm::detail::AnalysisResultModel.449" = type { %"struct.llvm::detail::AnalysisResultConcept.443", %"class.llvm::AssumptionCache" }
%"class.llvm::AssumptionCache" = type <{ ptr, ptr, %"class.llvm::SmallVector.450", %"class.llvm::DenseMap.455", i8, [7 x i8] }>
%"class.llvm::SmallVector.450" = type { %"class.llvm::SmallVectorImpl.451", %"struct.llvm::SmallVectorStorage.454" }
%"class.llvm::SmallVectorImpl.451" = type { %"class.llvm::SmallVectorTemplateBase.452" }
%"class.llvm::SmallVectorTemplateBase.452" = type { %"class.llvm::SmallVectorTemplateCommon.453" }
%"class.llvm::SmallVectorTemplateCommon.453" = type { %"class.llvm::SmallVectorBase" }
%"struct.llvm::SmallVectorStorage.454" = type { [128 x i8] }
%"class.llvm::DenseMap.455" = type <{ ptr, i32, i32, i32, [4 x i8] }>

@_ZN4llvm18AssumptionAnalysis3KeyE = external global %"struct.llvm::AnalysisKey", align 8

; Function Attrs: mustprogress nounwind uwtable
define linkonce_odr hidden noundef ptr @_ZN4llvm17AnalysisInfoMixinINS_18AssumptionAnalysisEE2IDEv() #1 comdat align 2 {
  ret ptr @_ZN4llvm18AssumptionAnalysis3KeyE
}

; Function Attrs: mustprogress nounwind uwtable
define linkonce_odr hidden noundef ptr @_ZNK4llvm15AnalysisManagerINS_8FunctionEJEE15getCachedResultINS_18AssumptionAnalysisEEEPNT_6ResultERS1_(ptr noundef nonnull align 8 dereferenceable(72) %0, ptr noundef nonnull align 8 dereferenceable(136) %1) #1 comdat align 2 {
  %3 = alloca ptr, align 8
  %4 = alloca ptr, align 8
  %5 = alloca ptr, align 8
  %6 = alloca ptr, align 8
  store ptr %0, ptr %4, align 8
  store ptr %1, ptr %5, align 8
  %7 = load ptr, ptr %4, align 8
  %8 = call noundef ptr @_ZN4llvm17AnalysisInfoMixinINS_18AssumptionAnalysisEE2IDEv()
  %9 = load ptr, ptr %5, align 8
  %10 = call noundef ptr @_ZNK4llvm15AnalysisManagerINS_8FunctionEJEE19getCachedResultImplEPNS_11AnalysisKeyERS1_(ptr noundef nonnull align 8 dereferenceable(72) %7, ptr noundef %8, ptr noundef nonnull align 8 dereferenceable(136) %9)
  store ptr %10, ptr %6, align 8
  %11 = load ptr, ptr %6, align 8
  %12 = icmp ne ptr %11, null
  br i1 %12, label %14, label %13

13:                                               ; preds = %2
  store ptr null, ptr %3, align 8
  br label %17

14:                                               ; preds = %2
  %15 = load ptr, ptr %6, align 8
  %16 = getelementptr inbounds nuw %"struct.llvm::detail::AnalysisResultModel.449", ptr %15, i32 0, i32 1
  store ptr %16, ptr %3, align 8
  br label %17

17:                                               ; preds = %14, %13
  %18 = load ptr, ptr %3, align 8
  ret ptr %18
}

; Function Attrs: mustprogress nounwind uwtable
define internal noundef ptr @"_ZZN4llvm20HotColdSplittingPass3runERNS_6ModuleERNS_15AnalysisManagerIS1_JEEEENK3$_3clERNS_8FunctionE"(ptr noundef nonnull align 8 dereferenceable(8) %0, ptr noundef nonnull align 8 dereferenceable(136) %1) #1 align 2 {
  %3 = alloca ptr, align 8
  %4 = alloca ptr, align 8
  store ptr %0, ptr %3, align 8
  store ptr %1, ptr %4, align 8
  %5 = load ptr, ptr %3, align 8
  %6 = getelementptr inbounds nuw %class.anon.275, ptr %5, i32 0, i32 0
  %7 = load ptr, ptr %6, align 8
  %8 = load ptr, ptr %4, align 8
  %9 = call noundef ptr @_ZNK4llvm15AnalysisManagerINS_8FunctionEJEE15getCachedResultINS_18AssumptionAnalysisEEEPNT_6ResultERS1_(ptr noundef nonnull align 8 dereferenceable(72) %7, ptr noundef nonnull align 8 dereferenceable(136) %8)
  ret ptr %9
}

; Function Attrs: mustprogress nounwind uwtable
define internal noundef ptr @"_ZN4llvm12function_refIFPNS_15AssumptionCacheERNS_8FunctionEEE11callback_fnIZNS_20HotColdSplittingPass3runERNS_6ModuleERNS_15AnalysisManagerIS9_JEEEE3$_3EES2_lS4_"(i64 noundef %0, ptr noundef nonnull align 8 dereferenceable(136) %1) #1 align 2 {
  %3 = alloca i64, align 8
  %4 = alloca ptr, align 8
  store i64 %0, ptr %3, align 8
  store ptr %1, ptr %4, align 8
  %5 = load i64, ptr %3, align 8
  %6 = inttoptr i64 %5 to ptr
  %7 = load ptr, ptr %4, align 8
  %8 = call noundef ptr @"_ZZN4llvm20HotColdSplittingPass3runERNS_6ModuleERNS_15AnalysisManagerIS1_JEEEENK3$_3clERNS_8FunctionE"(ptr noundef nonnull align 8 dereferenceable(8) %6, ptr noundef nonnull align 8 dereferenceable(136) %7)
  ret ptr %8
}